; Function Attrs: nounwind uwtable
define noalias ptr @l_Array_foldlMUnsafe_fold___at_Lean_IR_Borrow_ownArgs___spec__1(ptr noundef readonly captures(none) %0, i64 noundef %1, i64 noundef %2, ptr noundef %3, ptr noundef readonly captures(none) %4, ptr noundef %5) local_unnamed_addr #1 {
  %.not53 = icmp eq i64 %1, %2
  br i1 %.not53, label %._crit_edge, label %.lr.ph

.lr.ph:                                           ; preds = %6
  %7 = getelementptr inbounds nuw i8, ptr %0, i64 24
  br label %8

8:                                                ; preds = %.lr.ph, %61
  %.02656 = phi i64 [ %1, %.lr.ph ], [ %62, %61 ]
  %.02855 = phi ptr [ %3, %.lr.ph ], [ %30, %61 ]
  %.03054 = phi ptr [ %5, %.lr.ph ], [ %40, %61 ]
  %9 = ptrtoint ptr %.02855 to i64
  %10 = and i64 %9, 1
  %.not49 = icmp eq i64 %10, 0
  br i1 %.not49, label %11, label %lean_dec.exit32

11:                                               ; preds = %8
  %12 = load i32, ptr %.02855, align 4, !tbaa !4
  %13 = icmp sgt i32 %12, 1
  br i1 %13, label %14, label %16, !prof !11

14:                                               ; preds = %11
  %15 = add nsw i32 %12, -1
  store i32 %15, ptr %.02855, align 4, !tbaa !4
  br label %lean_dec.exit32

16:                                               ; preds = %11
  %.not.i = icmp eq i32 %12, 0
  br i1 %.not.i, label %lean_dec.exit32, label %17

17:                                               ; preds = %16
  tail call void @lean_dec_ref_cold(ptr noundef nonnull %.02855) #6
  br label %lean_dec.exit32

lean_dec.exit32:                                  ; preds = %17, %16, %14, %8
  %18 = getelementptr inbounds nuw [0 x ptr], ptr %7, i64 0, i64 %.02656
  %19 = load ptr, ptr %18, align 8, !tbaa !9
  %20 = ptrtoint ptr %19 to i64
  %21 = and i64 %20, 1
  %.not.i36 = icmp eq i64 %21, 0
  br i1 %.not.i36, label %22, label %lean_array_uget.exit

22:                                               ; preds = %lean_dec.exit32
  %.val.i.i = load i32, ptr %19, align 4, !tbaa !4
  %23 = icmp sgt i32 %.val.i.i, 0
  br i1 %23, label %24, label %26, !prof !11

24:                                               ; preds = %22
  %25 = add nuw i32 %.val.i.i, 1
  store i32 %25, ptr %19, align 4, !tbaa !4
  br label %lean_array_uget.exit

26:                                               ; preds = %22
  %.not.i.i = icmp eq i32 %.val.i.i, 0
  br i1 %.not.i.i, label %lean_array_uget.exit, label %27

27:                                               ; preds = %26
  tail call void @lean_inc_ref_cold(ptr noundef nonnull %19) #6
  br label %lean_array_uget.exit

lean_array_uget.exit:                             ; preds = %lean_dec.exit32, %24, %26, %27
  %28 = tail call ptr @l_Lean_IR_Borrow_ownArg(ptr noundef %19, ptr noundef %4, ptr noundef %.03054)
  %29 = getelementptr inbounds nuw i8, ptr %28, i64 8
  %30 = load ptr, ptr %29, align 8, !tbaa !9
  %31 = ptrtoint ptr %30 to i64
  %32 = and i64 %31, 1
  %.not50 = icmp eq i64 %32, 0
  br i1 %.not50, label %33, label %lean_inc.exit33

33:                                               ; preds = %lean_array_uget.exit
  %.val.i = load i32, ptr %30, align 4, !tbaa !4
  %34 = icmp sgt i32 %.val.i, 0
  br i1 %34, label %35, label %37, !prof !11

35:                                               ; preds = %33
  %36 = add nuw i32 %.val.i, 1
  store i32 %36, ptr %30, align 4, !tbaa !4
  br label %lean_inc.exit33

37:                                               ; preds = %33
  %.not.i37 = icmp eq i32 %.val.i, 0
  br i1 %.not.i37, label %lean_inc.exit33, label %38

38:                                               ; preds = %37
  tail call void @lean_inc_ref_cold(ptr noundef nonnull %30) #6
  br label %lean_inc.exit33

lean_inc.exit33:                                  ; preds = %38, %37, %35, %lean_array_uget.exit
  %39 = getelementptr inbounds nuw i8, ptr %28, i64 16
  %40 = load ptr, ptr %39, align 8, !tbaa !9
  %41 = ptrtoint ptr %40 to i64
  %42 = and i64 %41, 1
  %.not51 = icmp eq i64 %42, 0
  br i1 %.not51, label %43, label %lean_inc.exit

43:                                               ; preds = %lean_inc.exit33
  %.val.i38 = load i32, ptr %40, align 4, !tbaa !4
  %44 = icmp sgt i32 %.val.i38, 0
  br i1 %44, label %45, label %47, !prof !11

45:                                               ; preds = %43
  %46 = add nuw i32 %.val.i38, 1
  store i32 %46, ptr %40, align 4, !tbaa !4
  br label %lean_inc.exit

47:                                               ; preds = %43
  %.not.i39 = icmp eq i32 %.val.i38, 0
  br i1 %.not.i39, label %lean_inc.exit, label %48

48:                                               ; preds = %47
  tail call void @lean_inc_ref_cold(ptr noundef nonnull %40) #6
  br label %lean_inc.exit

lean_inc.exit:                                    ; preds = %48, %47, %45, %lean_inc.exit33
  %49 = ptrtoint ptr %28 to i64
  %50 = and i64 %49, 1
  %.not52 = icmp eq i64 %50, 0
  br i1 %.not52, label %51, label %61

51:                                               ; preds = %lean_inc.exit
  %52 = load i32, ptr %28, align 4, !tbaa !4
  %53 = icmp sgt i32 %52, 1
  br i1 %53, label %54, label %56, !prof !11

54:                                               ; preds = %51
  %55 = add nsw i32 %52, -1
  store i32 %55, ptr %28, align 4, !tbaa !4
  br label %61

56:                                               ; preds = %51
  %.not.i34 = icmp eq i32 %52, 0
  br i1 %.not.i34, label %61, label %57

57:                                               ; preds = %56
  tail call void @lean_dec_ref_cold(ptr noundef nonnull %28) #6
  br label %61

._crit_edge:                                      ; preds = %61, %6
  %.030.lcssa = phi ptr [ %5, %6 ], [ %40, %61 ]
  %.028.lcssa = phi ptr [ %3, %6 ], [ %30, %61 ]
  tail call void @lean_inc_heartbeat() #6
  %58 = tail call noalias ptr @mi_malloc_small(i64 noundef 24) #6
  %59 = icmp eq ptr %58, null
  br i1 %59, label %60, label %63

60:                                               ; preds = %._crit_edge
  tail call void @lean_internal_panic_out_of_memory() #7
  unreachable

61:                                               ; preds = %lean_inc.exit, %54, %56, %57
  %62 = add i64 %.02656, 1
  %.not = icmp eq i64 %62, %2
  br i1 %.not, label %._crit_edge, label %8

63:                                               ; preds = %._crit_edge
  %64 = getelementptr inbounds nuw i8, ptr %58, i64 4
  store i32 1, ptr %58, align 4, !tbaa !4
  store i32 131096, ptr %64, align 4
  %65 = getelementptr inbounds nuw i8, ptr %58, i64 8
  store ptr %.028.lcssa, ptr %65, align 8, !tbaa !9
  %66 = getelementptr inbounds nuw i8, ptr %58, i64 16
  store ptr %.030.lcssa, ptr %66, align 8, !tbaa !9
  ret ptr %58
}